target datalayout = "e-m:e-p270:32:32-p271:32:32-p272:64:64-i64:64-i128:128-f80:128-n8:16:32:64-S128"
target triple = "x86_64-pc-linux-gnu"

%struct.AfterTriggerEventList = type { ptr, ptr, ptr }
%struct.ForEachState = type { ptr, i32 }
%struct.List = type { i32, i32, i32, ptr, [0 x %union.ListCell] }
%union.ListCell = type { ptr }
%struct.AfterTriggersTableData = type { i32, i32, i8, i8, i8, %struct.AfterTriggerEventList, ptr, ptr, ptr, ptr, ptr }
%struct.AfterTriggersQueryData = type { %struct.AfterTriggerEventList, ptr, ptr }
%struct.AfterTriggerEventChunk = type { ptr, ptr, ptr, ptr }

; Function Attrs: nounwind uwtable
define internal void @afterTriggerFreeEventList(ptr noundef %0) #0 {
  %2 = alloca ptr, align 8
  %3 = alloca ptr, align 8
  store ptr %0, ptr %2, align 8
  call void @llvm.lifetime.start.p0(i64 8, ptr %3) #12
  br label %4

4:                                                ; preds = %9, %1
  %5 = load ptr, ptr %2, align 8
  %6 = getelementptr inbounds nuw %struct.AfterTriggerEventList, ptr %5, i32 0, i32 0
  %7 = load ptr, ptr %6, align 8
  store ptr %7, ptr %3, align 8
  %8 = icmp ne ptr %7, null
  br i1 %8, label %9, label %16

9:                                                ; preds = %4
  %10 = load ptr, ptr %3, align 8
  %11 = getelementptr inbounds nuw %struct.AfterTriggerEventChunk, ptr %10, i32 0, i32 0
  %12 = load ptr, ptr %11, align 8
  %13 = load ptr, ptr %2, align 8
  %14 = getelementptr inbounds nuw %struct.AfterTriggerEventList, ptr %13, i32 0, i32 0
  store ptr %12, ptr %14, align 8
  %15 = load ptr, ptr %3, align 8
  call void @pfree(ptr noundef %15)
  br label %4, !llvm.loop !76

16:                                               ; preds = %4
  %17 = load ptr, ptr %2, align 8
  %18 = getelementptr inbounds nuw %struct.AfterTriggerEventList, ptr %17, i32 0, i32 1
  store ptr null, ptr %18, align 8
  %19 = load ptr, ptr %2, align 8
  %20 = getelementptr inbounds nuw %struct.AfterTriggerEventList, ptr %19, i32 0, i32 2
  store ptr null, ptr %20, align 8
  call void @llvm.lifetime.end.p0(i64 8, ptr %3) #12
  ret void
}

; Function Attrs: nounwind uwtable
define internal void @AfterTriggerFreeQuery(ptr noundef %0) #0 {
  %2 = alloca ptr, align 8
  %3 = alloca ptr, align 8
  %4 = alloca ptr, align 8
  %5 = alloca ptr, align 8
  %6 = alloca %struct.ForEachState, align 8
  %7 = alloca ptr, align 8
  %8 = alloca ptr, align 8
  store ptr %0, ptr %2, align 8
  call void @llvm.lifetime.start.p0(i64 8, ptr %3) #12
  call void @llvm.lifetime.start.p0(i64 8, ptr %4) #12
  call void @llvm.lifetime.start.p0(i64 8, ptr %5) #12
  %9 = load ptr, ptr %2, align 8
  %10 = getelementptr inbounds nuw %struct.AfterTriggersQueryData, ptr %9, i32 0, i32 0
  call void @afterTriggerFreeEventList(ptr noundef %10)
  %11 = load ptr, ptr %2, align 8
  %12 = getelementptr inbounds nuw %struct.AfterTriggersQueryData, ptr %11, i32 0, i32 1
  %13 = load ptr, ptr %12, align 8
  store ptr %13, ptr %3, align 8
  %14 = load ptr, ptr %2, align 8
  %15 = getelementptr inbounds nuw %struct.AfterTriggersQueryData, ptr %14, i32 0, i32 1
  store ptr null, ptr %15, align 8
  %16 = load ptr, ptr %3, align 8
  %17 = icmp ne ptr %16, null
  br i1 %17, label %18, label %20

18:                                               ; preds = %1
  %19 = load ptr, ptr %3, align 8
  call void @tuplestore_end(ptr noundef %19)
  br label %20

20:                                               ; preds = %18, %1
  %21 = load ptr, ptr %2, align 8
  %22 = getelementptr inbounds nuw %struct.AfterTriggersQueryData, ptr %21, i32 0, i32 2
  %23 = load ptr, ptr %22, align 8
  store ptr %23, ptr %4, align 8
  call void @llvm.lifetime.start.p0(i64 16, ptr %6) #12
  %24 = getelementptr inbounds nuw %struct.ForEachState, ptr %6, i32 0, i32 0
  %25 = load ptr, ptr %4, align 8
  store ptr %25, ptr %24, align 8
  %26 = getelementptr inbounds nuw %struct.ForEachState, ptr %6, i32 0, i32 1
  store i32 0, ptr %26, align 8
  %27 = getelementptr i8, ptr %6, i64 12
  call void @llvm.memset.p0.i64(ptr align 4 %27, i8 0, i64 4, i1 false)
  br label %28

28:                                               ; preds = %109, %20
  %29 = getelementptr inbounds nuw %struct.ForEachState, ptr %6, i32 0, i32 0
  %30 = load ptr, ptr %29, align 8
  %31 = icmp ne ptr %30, null
  br i1 %31, label %32, label %49

32:                                               ; preds = %28
  %33 = getelementptr inbounds nuw %struct.ForEachState, ptr %6, i32 0, i32 1
  %34 = load i32, ptr %33, align 8
  %35 = getelementptr inbounds nuw %struct.ForEachState, ptr %6, i32 0, i32 0
  %36 = load ptr, ptr %35, align 8
  %37 = getelementptr inbounds nuw %struct.List, ptr %36, i32 0, i32 1
  %38 = load i32, ptr %37, align 4
  %39 = icmp slt i32 %34, %38
  br i1 %39, label %40, label %49

40:                                               ; preds = %32
  %41 = getelementptr inbounds nuw %struct.ForEachState, ptr %6, i32 0, i32 0
  %42 = load ptr, ptr %41, align 8
  %43 = getelementptr inbounds nuw %struct.List, ptr %42, i32 0, i32 3
  %44 = load ptr, ptr %43, align 8
  %45 = getelementptr inbounds nuw %struct.ForEachState, ptr %6, i32 0, i32 1
  %46 = load i32, ptr %45, align 8
  %47 = sext i32 %46 to i64
  %48 = getelementptr inbounds %union.ListCell, ptr %44, i64 %47
  store ptr %48, ptr %5, align 8
  br label %50

49:                                               ; preds = %32, %28
  store ptr null, ptr %5, align 8
  br label %50

50:                                               ; preds = %49, %40
  %51 = phi i32 [ 1, %40 ], [ 0, %49 ]
  %52 = icmp ne i32 %51, 0
  br i1 %52, label %54, label %53

53:                                               ; preds = %50
  call void @llvm.lifetime.end.p0(i64 16, ptr %6) #12
  br label %113

54:                                               ; preds = %50
  call void @llvm.lifetime.start.p0(i64 8, ptr %7) #12
  %55 = load ptr, ptr %5, align 8
  %56 = load ptr, ptr %55, align 8
  store ptr %56, ptr %7, align 8
  %57 = load ptr, ptr %7, align 8
  %58 = getelementptr inbounds nuw %struct.AfterTriggersTableData, ptr %57, i32 0, i32 6
  %59 = load ptr, ptr %58, align 8
  store ptr %59, ptr %3, align 8
  %60 = load ptr, ptr %7, align 8
  %61 = getelementptr inbounds nuw %struct.AfterTriggersTableData, ptr %60, i32 0, i32 6
  store ptr null, ptr %61, align 8
  %62 = load ptr, ptr %3, align 8
  %63 = icmp ne ptr %62, null
  br i1 %63, label %64, label %66

64:                                               ; preds = %54
  %65 = load ptr, ptr %3, align 8
  call void @tuplestore_end(ptr noundef %65)
  br label %66

66:                                               ; preds = %64, %54
  %67 = load ptr, ptr %7, align 8
  %68 = getelementptr inbounds nuw %struct.AfterTriggersTableData, ptr %67, i32 0, i32 7
  %69 = load ptr, ptr %68, align 8
  store ptr %69, ptr %3, align 8
  %70 = load ptr, ptr %7, align 8
  %71 = getelementptr inbounds nuw %struct.AfterTriggersTableData, ptr %70, i32 0, i32 7
  store ptr null, ptr %71, align 8
  %72 = load ptr, ptr %3, align 8
  %73 = icmp ne ptr %72, null
  br i1 %73, label %74, label %76

74:                                               ; preds = %66
  %75 = load ptr, ptr %3, align 8
  call void @tuplestore_end(ptr noundef %75)
  br label %76

76:                                               ; preds = %74, %66
  %77 = load ptr, ptr %7, align 8
  %78 = getelementptr inbounds nuw %struct.AfterTriggersTableData, ptr %77, i32 0, i32 8
  %79 = load ptr, ptr %78, align 8
  store ptr %79, ptr %3, align 8
  %80 = load ptr, ptr %7, align 8
  %81 = getelementptr inbounds nuw %struct.AfterTriggersTableData, ptr %80, i32 0, i32 8
  store ptr null, ptr %81, align 8
  %82 = load ptr, ptr %3, align 8
  %83 = icmp ne ptr %82, null
  br i1 %83, label %84, label %86

84:                                               ; preds = %76
  %85 = load ptr, ptr %3, align 8
  call void @tuplestore_end(ptr noundef %85)
  br label %86

86:                                               ; preds = %84, %76
  %87 = load ptr, ptr %7, align 8
  %88 = getelementptr inbounds nuw %struct.AfterTriggersTableData, ptr %87, i32 0, i32 9
  %89 = load ptr, ptr %88, align 8
  store ptr %89, ptr %3, align 8
  %90 = load ptr, ptr %7, align 8
  %91 = getelementptr inbounds nuw %struct.AfterTriggersTableData, ptr %90, i32 0, i32 9
  store ptr null, ptr %91, align 8
  %92 = load ptr, ptr %3, align 8
  %93 = icmp ne ptr %92, null
  br i1 %93, label %94, label %96

94:                                               ; preds = %86
  %95 = load ptr, ptr %3, align 8
  call void @tuplestore_end(ptr noundef %95)
  br label %96

96:                                               ; preds = %94, %86
  %97 = load ptr, ptr %7, align 8
  %98 = getelementptr inbounds nuw %struct.AfterTriggersTableData, ptr %97, i32 0, i32 10
  %99 = load ptr, ptr %98, align 8
  %100 = icmp ne ptr %99, null
  br i1 %100, label %101, label %108

101:                                              ; preds = %96
  call void @llvm.lifetime.start.p0(i64 8, ptr %8) #12
  %102 = load ptr, ptr %7, align 8
  %103 = getelementptr inbounds nuw %struct.AfterTriggersTableData, ptr %102, i32 0, i32 10
  %104 = load ptr, ptr %103, align 8
  store ptr %104, ptr %8, align 8
  %105 = load ptr, ptr %7, align 8
  %106 = getelementptr inbounds nuw %struct.AfterTriggersTableData, ptr %105, i32 0, i32 10
  store ptr null, ptr %106, align 8
  %107 = load ptr, ptr %8, align 8
  call void @ExecDropSingleTupleTableSlot(ptr noundef %107)
  call void @llvm.lifetime.end.p0(i64 8, ptr %8) #12
  br label %108

108:                                              ; preds = %101, %96
  call void @llvm.lifetime.end.p0(i64 8, ptr %7) #12
  br label %109

109:                                              ; preds = %108
  %110 = getelementptr inbounds nuw %struct.ForEachState, ptr %6, i32 0, i32 1
  %111 = load i32, ptr %110, align 8
  %112 = add i32 %111, 1
  store i32 %112, ptr %110, align 8
  br label %28, !llvm.loop !51

113:                                              ; preds = %53
  %114 = load ptr, ptr %2, align 8
  %115 = getelementptr inbounds nuw %struct.AfterTriggersQueryData, ptr %114, i32 0, i32 2
  store ptr null, ptr %115, align 8
  %116 = load ptr, ptr %4, align 8
  call void @list_free_deep(ptr noundef %116)
  call void @llvm.lifetime.end.p0(i64 8, ptr %5) #12
  call void @llvm.lifetime.end.p0(i64 8, ptr %4) #12
  call void @llvm.lifetime.end.p0(i64 8, ptr %3) #12
  ret void
}