; Function Attrs: nounwind uwtable
define internal fastcc void @AfterTriggerFreeQuery(ptr noundef captures(none) %0) unnamed_addr #0 {
  %2 = load ptr, ptr %0, align 8
  %.not6.i = icmp eq ptr %2, null
  br i1 %.not6.i, label %afterTriggerFreeEventList.exit, label %.lr.ph.i

.lr.ph.i:                                         ; preds = %1, %.lr.ph.i
  %3 = phi ptr [ %5, %.lr.ph.i ], [ %2, %1 ]
  %4 = load ptr, ptr %3, align 8
  store ptr %4, ptr %0, align 8
  tail call void @pfree(ptr noundef nonnull %3) #16
  %5 = load ptr, ptr %0, align 8
  %.not.i = icmp eq ptr %5, null
  br i1 %.not.i, label %afterTriggerFreeEventList.exit, label %.lr.ph.i, !llvm.loop !49

afterTriggerFreeEventList.exit:                   ; preds = %.lr.ph.i, %1
  %6 = getelementptr inbounds nuw i8, ptr %0, i64 8
  tail call void @llvm.memset.p0.i64(ptr noundef nonnull align 8 dereferenceable(16) %6, i8 0, i64 16, i1 false)
  %7 = getelementptr inbounds nuw i8, ptr %0, i64 24
  %8 = load ptr, ptr %7, align 8
  store ptr null, ptr %7, align 8
  %.not = icmp eq ptr %8, null
  br i1 %.not, label %10, label %9

9:                                                ; preds = %afterTriggerFreeEventList.exit
  tail call void @tuplestore_end(ptr noundef nonnull %8) #16
  br label %10

10:                                               ; preds = %9, %afterTriggerFreeEventList.exit
  %11 = getelementptr inbounds nuw i8, ptr %0, i64 32
  %12 = load ptr, ptr %11, align 8
  %13 = getelementptr inbounds nuw i8, ptr %12, i64 4
  %.not41 = icmp eq ptr %12, null
  br i1 %.not41, label %._crit_edge, label %.lr.ph

.lr.ph:                                           ; preds = %10
  %14 = getelementptr inbounds nuw i8, ptr %12, i64 16
  %15 = load i32, ptr %13, align 4
  %16 = icmp sgt i32 %15, 0
  br i1 %16, label %.lr.ph53, label %._crit_edge

._crit_edge:                                      ; preds = %39, %.lr.ph, %10
  store ptr null, ptr %11, align 8
  tail call void @list_free_deep(ptr noundef %12) #16
  ret void

.lr.ph53:                                         ; preds = %.lr.ph, %39
  %indvars.iv = phi i64 [ %indvars.iv.next, %39 ], [ 0, %.lr.ph ]
  %17 = load ptr, ptr %14, align 8
  %18 = getelementptr inbounds nuw %union.ListCell, ptr %17, i64 %indvars.iv
  %19 = load ptr, ptr %18, align 8
  %20 = getelementptr inbounds nuw i8, ptr %19, i64 40
  %21 = load ptr, ptr %20, align 8
  store ptr null, ptr %20, align 8
  %.not43 = icmp eq ptr %21, null
  br i1 %.not43, label %23, label %22

22:                                               ; preds = %.lr.ph53
  tail call void @tuplestore_end(ptr noundef nonnull %21) #16
  br label %23

23:                                               ; preds = %22, %.lr.ph53
  %24 = getelementptr inbounds nuw i8, ptr %19, i64 48
  %25 = load ptr, ptr %24, align 8
  store ptr null, ptr %24, align 8
  %.not44 = icmp eq ptr %25, null
  br i1 %.not44, label %27, label %26

26:                                               ; preds = %23
  tail call void @tuplestore_end(ptr noundef nonnull %25) #16
  br label %27

27:                                               ; preds = %26, %23
  %28 = getelementptr inbounds nuw i8, ptr %19, i64 56
  %29 = load ptr, ptr %28, align 8
  store ptr null, ptr %28, align 8
  %.not45 = icmp eq ptr %29, null
  br i1 %.not45, label %31, label %30

30:                                               ; preds = %27
  tail call void @tuplestore_end(ptr noundef nonnull %29) #16
  br label %31

31:                                               ; preds = %30, %27
  %32 = getelementptr inbounds nuw i8, ptr %19, i64 64
  %33 = load ptr, ptr %32, align 8
  store ptr null, ptr %32, align 8
  %.not46 = icmp eq ptr %33, null
  br i1 %.not46, label %35, label %34

34:                                               ; preds = %31
  tail call void @tuplestore_end(ptr noundef nonnull %33) #16
  br label %35

35:                                               ; preds = %34, %31
  %36 = getelementptr inbounds nuw i8, ptr %19, i64 72
  %37 = load ptr, ptr %36, align 8
  %.not47 = icmp eq ptr %37, null
  br i1 %.not47, label %39, label %38

38:                                               ; preds = %35
  store ptr null, ptr %36, align 8
  tail call void @ExecDropSingleTupleTableSlot(ptr noundef nonnull %37) #16
  br label %39

39:                                               ; preds = %38, %35
  %indvars.iv.next = add nuw nsw i64 %indvars.iv, 1
  %40 = load i32, ptr %13, align 4
  %41 = sext i32 %40 to i64
  %42 = icmp slt i64 %indvars.iv.next, %41
  br i1 %42, label %.lr.ph53, label %._crit_edge
}